target datalayout = "e-m:e-p270:32:32-p271:32:32-p272:64:64-i64:64-i128:128-f80:128-n8:16:32:64-S128"
target triple = "x86_64-pc-linux-gnu"

%class.AddressEditorFrame = type { %class.AccordionFrame, ptr, ptr }
%class.AccordionFrame = type { %class.QFrame, i32, ptr }
%class.QFrame = type { %class.QWidget }
%class.QWidget = type { %class.QObject, %class.QPaintDevice.base, ptr }
%class.QObject = type { ptr, %class.QScopedPointer }
%class.QScopedPointer = type { ptr }
%class.QPaintDevice.base = type <{ ptr, i16 }>
%class.Ui_AddressEditorFrame = type { ptr, ptr, ptr, ptr, ptr, ptr, ptr, ptr, ptr, ptr }

; Function Attrs: mustprogress null_pointer_is_valid sspstrong uwtable
define linkonce_odr void @_ZN14AccordionFrame9showEventEP10QShowEvent(ptr noundef align 8 dereferenceable_or_null(56) %0, ptr noundef %1) unnamed_addr #0 comdat align 2 {
  %3 = alloca ptr, align 8
  %4 = alloca ptr, align 8
  store ptr %0, ptr %3, align 8
  store ptr %1, ptr %4, align 8
  %5 = load ptr, ptr %3, align 8
  call void @_ZN14AccordionFrame17visibilityChangedEb(ptr noundef align 8 dereferenceable_or_null(56) %5, i1 noundef zeroext true)
  ret void
}

; Function Attrs: inlinehint mustprogress null_pointer_is_valid sspstrong uwtable
define linkonce_odr void @_ZN7QWidget8setFocusEv(ptr noundef align 8 dereferenceable_or_null(40) %0) #9 comdat align 2 {
  %2 = alloca ptr, align 8
  store ptr %0, ptr %2, align 8
  %3 = load ptr, ptr %2, align 8
  call void @_ZN7QWidget8setFocusEN2Qt11FocusReasonE(ptr noundef align 8 dereferenceable_or_null(40) %3, i32 noundef 7)
  ret void
}

; Function Attrs: mustprogress null_pointer_is_valid sspstrong uwtable
define void @_ZN18AddressEditorFrame9showEventEP10QShowEvent(ptr noundef align 8 dereferenceable_or_null(72) %0, ptr noundef %1) unnamed_addr #0 align 2 {
  %3 = alloca ptr, align 8
  %4 = alloca ptr, align 8
  store ptr %0, ptr %3, align 8
  store ptr %1, ptr %4, align 8
  %5 = load ptr, ptr %3, align 8
  %6 = getelementptr inbounds nuw %class.AddressEditorFrame, ptr %5, i32 0, i32 1
  %7 = load ptr, ptr %6, align 8
  %8 = getelementptr inbounds nuw %class.Ui_AddressEditorFrame, ptr %7, i32 0, i32 7
  %9 = load ptr, ptr %8, align 8
  call void @_ZN7QWidget8setFocusEv(ptr noundef align 8 dereferenceable_or_null(40) %9)
  %10 = getelementptr inbounds nuw %class.AddressEditorFrame, ptr %5, i32 0, i32 1
  %11 = load ptr, ptr %10, align 8
  %12 = getelementptr inbounds nuw %class.Ui_AddressEditorFrame, ptr %11, i32 0, i32 7
  %13 = load ptr, ptr %12, align 8
  call void @_ZN9QLineEdit9selectAllEv(ptr noundef align 8 dereferenceable_or_null(40) %13)
  %14 = load ptr, ptr %4, align 8
  call void @_ZN14AccordionFrame9showEventEP10QShowEvent(ptr noundef align 8 dereferenceable_or_null(56) %5, ptr noundef %14)
  ret void
}