; Function Attrs: mustprogress null_pointer_is_valid sspstrong uwtable
define void @_ZN18AddressEditorFrame9showEventEP10QShowEvent(ptr noundef align 8 dereferenceable_or_null(72) %0, ptr noundef readnone captures(none) %1) unnamed_addr #0 align 2 {
  %3 = getelementptr inbounds nuw i8, ptr %0, i64 56
  %4 = load ptr, ptr %3, align 8
  %5 = getelementptr inbounds nuw i8, ptr %4, i64 56
  %6 = load ptr, ptr %5, align 8
  tail call void @_ZN7QWidget8setFocusEN2Qt11FocusReasonE(ptr noundef align 8 dereferenceable_or_null(40) %6, i32 noundef 7)
  %7 = load ptr, ptr %3, align 8
  %8 = getelementptr inbounds nuw i8, ptr %7, i64 56
  %9 = load ptr, ptr %8, align 8
  tail call void @_ZN9QLineEdit9selectAllEv(ptr noundef align 8 dereferenceable_or_null(40) %9)
  tail call void @_ZN14AccordionFrame17visibilityChangedEb(ptr noundef align 8 dereferenceable_or_null(56) %0, i1 noundef zeroext true)
  ret void
}